target datalayout = "e-m:e-p270:32:32-p271:32:32-p272:64:64-i64:64-i128:128-f80:128-n8:16:32:64-S128"
target triple = "x86_64-pc-linux-gnu"

; Function Attrs: alwaysinline nounwind uwtable
define internal void @interleave_8bit(ptr noundef %0, ptr noundef %1, ptr noundef %2, i32 noundef %3, i32 noundef %4, i32 noundef %5) #4 {
  %7 = alloca ptr, align 8
  %8 = alloca ptr, align 8
  %9 = alloca ptr, align 8
  %10 = alloca i32, align 4
  %11 = alloca i32, align 4
  %12 = alloca i32, align 4
  %13 = alloca i32, align 4
  store ptr %0, ptr %7, align 8, !tbaa !48
  store ptr %1, ptr %8, align 8, !tbaa !48
  store ptr %2, ptr %9, align 8, !tbaa !48
  store i32 %3, ptr %10, align 4, !tbaa !11
  store i32 %4, ptr %11, align 4, !tbaa !11
  store i32 %5, ptr %12, align 4, !tbaa !11
  call void @llvm.lifetime.start.p0(i64 4, ptr %13) #5
  store i32 0, ptr %13, align 4, !tbaa !11
  br label %14

14:                                               ; preds = %52, %6
  %15 = load i32, ptr %13, align 4, !tbaa !11
  %16 = load i32, ptr %10, align 4, !tbaa !11
  %17 = icmp slt i32 %15, %16
  br i1 %17, label %18, label %55

18:                                               ; preds = %14
  %19 = load ptr, ptr %8, align 8, !tbaa !48
  %20 = load i32, ptr %13, align 4, !tbaa !11
  %21 = sext i32 %20 to i64
  %22 = getelementptr inbounds i16, ptr %19, i64 %21
  %23 = load i16, ptr %22, align 2, !tbaa !50
  %24 = sext i16 %23 to i32
  %25 = load i32, ptr %11, align 4, !tbaa !11
  %26 = add i32 %24, %25
  %27 = load i32, ptr %12, align 4, !tbaa !11
  %28 = ashr i32 %26, %27
  %29 = trunc i32 %28 to i16
  %30 = load ptr, ptr %7, align 8, !tbaa !48
  %31 = load i32, ptr %13, align 4, !tbaa !11
  %32 = mul nsw i32 2, %31
  %33 = sext i32 %32 to i64
  %34 = getelementptr inbounds i16, ptr %30, i64 %33
  store i16 %29, ptr %34, align 2, !tbaa !50
  %35 = load ptr, ptr %9, align 8, !tbaa !48
  %36 = load i32, ptr %13, align 4, !tbaa !11
  %37 = sext i32 %36 to i64
  %38 = getelementptr inbounds i16, ptr %35, i64 %37
  %39 = load i16, ptr %38, align 2, !tbaa !50
  %40 = sext i16 %39 to i32
  %41 = load i32, ptr %11, align 4, !tbaa !11
  %42 = add i32 %40, %41
  %43 = load i32, ptr %12, align 4, !tbaa !11
  %44 = ashr i32 %42, %43
  %45 = trunc i32 %44 to i16
  %46 = load ptr, ptr %7, align 8, !tbaa !48
  %47 = load i32, ptr %13, align 4, !tbaa !11
  %48 = mul nsw i32 2, %47
  %49 = add nsw i32 %48, 1
  %50 = sext i32 %49 to i64
  %51 = getelementptr inbounds i16, ptr %46, i64 %50
  store i16 %45, ptr %51, align 2, !tbaa !50
  br label %52

52:                                               ; preds = %18
  %53 = load i32, ptr %13, align 4, !tbaa !11
  %54 = add nsw i32 %53, 1
  store i32 %54, ptr %13, align 4, !tbaa !11
  br label %14, !llvm.loop !87

55:                                               ; preds = %14
  call void @llvm.lifetime.end.p0(i64 4, ptr %13) #5
  ret void
}

; Function Attrs: nounwind uwtable
define internal void @horizontal_compose_dirac53i_8bit(ptr noundef %0, ptr noundef %1, i32 noundef %2) #0 {
  %4 = alloca ptr, align 8
  %5 = alloca ptr, align 8
  %6 = alloca i32, align 4
  %7 = alloca i32, align 4
  %8 = alloca i32, align 4
  %9 = alloca ptr, align 8
  %10 = alloca ptr, align 8
  store ptr %0, ptr %4, align 8, !tbaa !44
  store ptr %1, ptr %5, align 8, !tbaa !44
  store i32 %2, ptr %6, align 4, !tbaa !11
  call void @llvm.lifetime.start.p0(i64 4, ptr %7) #5
  call void @llvm.lifetime.start.p0(i64 4, ptr %8) #5
  %11 = load i32, ptr %6, align 4, !tbaa !11
  %12 = ashr i32 %11, 1
  store i32 %12, ptr %8, align 4, !tbaa !11
  call void @llvm.lifetime.start.p0(i64 8, ptr %9) #5
  %13 = load ptr, ptr %4, align 8, !tbaa !44
  store ptr %13, ptr %9, align 8, !tbaa !48
  call void @llvm.lifetime.start.p0(i64 8, ptr %10) #5
  %14 = load ptr, ptr %5, align 8, !tbaa !44
  store ptr %14, ptr %10, align 8, !tbaa !48
  %15 = load ptr, ptr %9, align 8, !tbaa !48
  %16 = getelementptr inbounds i16, ptr %15, i64 0
  %17 = load i16, ptr %16, align 2, !tbaa !50
  %18 = sext i16 %17 to i32
  %19 = load ptr, ptr %9, align 8, !tbaa !48
  %20 = load i32, ptr %8, align 4, !tbaa !11
  %21 = sext i32 %20 to i64
  %22 = getelementptr inbounds i16, ptr %19, i64 %21
  %23 = load i16, ptr %22, align 2, !tbaa !50
  %24 = sext i16 %23 to i32
  %25 = load ptr, ptr %9, align 8, !tbaa !48
  %26 = load i32, ptr %8, align 4, !tbaa !11
  %27 = sext i32 %26 to i64
  %28 = getelementptr inbounds i16, ptr %25, i64 %27
  %29 = load i16, ptr %28, align 2, !tbaa !50
  %30 = sext i16 %29 to i32
  %31 = add i32 %24, %30
  %32 = add i32 %31, 2
  %33 = ashr i32 %32, 2
  %34 = sub i32 %18, %33
  %35 = trunc i32 %34 to i16
  %36 = load ptr, ptr %10, align 8, !tbaa !48
  %37 = getelementptr inbounds i16, ptr %36, i64 0
  store i16 %35, ptr %37, align 2, !tbaa !50
  store i32 1, ptr %7, align 4, !tbaa !11
  br label %38

38:                                               ; preds = %109, %3
  %39 = load i32, ptr %7, align 4, !tbaa !11
  %40 = load i32, ptr %8, align 4, !tbaa !11
  %41 = icmp slt i32 %39, %40
  br i1 %41, label %42, label %112

42:                                               ; preds = %38
  %43 = load ptr, ptr %9, align 8, !tbaa !48
  %44 = load i32, ptr %7, align 4, !tbaa !11
  %45 = sext i32 %44 to i64
  %46 = getelementptr inbounds i16, ptr %43, i64 %45
  %47 = load i16, ptr %46, align 2, !tbaa !50
  %48 = sext i16 %47 to i32
  %49 = load ptr, ptr %9, align 8, !tbaa !48
  %50 = load i32, ptr %7, align 4, !tbaa !11
  %51 = load i32, ptr %8, align 4, !tbaa !11
  %52 = add nsw i32 %50, %51
  %53 = sub nsw i32 %52, 1
  %54 = sext i32 %53 to i64
  %55 = getelementptr inbounds i16, ptr %49, i64 %54
  %56 = load i16, ptr %55, align 2, !tbaa !50
  %57 = sext i16 %56 to i32
  %58 = load ptr, ptr %9, align 8, !tbaa !48
  %59 = load i32, ptr %7, align 4, !tbaa !11
  %60 = load i32, ptr %8, align 4, !tbaa !11
  %61 = add nsw i32 %59, %60
  %62 = sext i32 %61 to i64
  %63 = getelementptr inbounds i16, ptr %58, i64 %62
  %64 = load i16, ptr %63, align 2, !tbaa !50
  %65 = sext i16 %64 to i32
  %66 = add i32 %57, %65
  %67 = add i32 %66, 2
  %68 = ashr i32 %67, 2
  %69 = sub i32 %48, %68
  %70 = trunc i32 %69 to i16
  %71 = load ptr, ptr %10, align 8, !tbaa !48
  %72 = load i32, ptr %7, align 4, !tbaa !11
  %73 = sext i32 %72 to i64
  %74 = getelementptr inbounds i16, ptr %71, i64 %73
  store i16 %70, ptr %74, align 2, !tbaa !50
  %75 = load ptr, ptr %9, align 8, !tbaa !48
  %76 = load i32, ptr %7, align 4, !tbaa !11
  %77 = load i32, ptr %8, align 4, !tbaa !11
  %78 = add nsw i32 %76, %77
  %79 = sub nsw i32 %78, 1
  %80 = sext i32 %79 to i64
  %81 = getelementptr inbounds i16, ptr %75, i64 %80
  %82 = load i16, ptr %81, align 2, !tbaa !50
  %83 = sext i16 %82 to i32
  %84 = load ptr, ptr %10, align 8, !tbaa !48
  %85 = load i32, ptr %7, align 4, !tbaa !11
  %86 = sub nsw i32 %85, 1
  %87 = sext i32 %86 to i64
  %88 = getelementptr inbounds i16, ptr %84, i64 %87
  %89 = load i16, ptr %88, align 2, !tbaa !50
  %90 = sext i16 %89 to i32
  %91 = load ptr, ptr %10, align 8, !tbaa !48
  %92 = load i32, ptr %7, align 4, !tbaa !11
  %93 = sext i32 %92 to i64
  %94 = getelementptr inbounds i16, ptr %91, i64 %93
  %95 = load i16, ptr %94, align 2, !tbaa !50
  %96 = sext i16 %95 to i32
  %97 = add i32 %90, %96
  %98 = add i32 %97, 1
  %99 = ashr i32 %98, 1
  %100 = add i32 %83, %99
  %101 = trunc i32 %100 to i16
  %102 = load ptr, ptr %10, align 8, !tbaa !48
  %103 = load i32, ptr %7, align 4, !tbaa !11
  %104 = load i32, ptr %8, align 4, !tbaa !11
  %105 = add nsw i32 %103, %104
  %106 = sub nsw i32 %105, 1
  %107 = sext i32 %106 to i64
  %108 = getelementptr inbounds i16, ptr %102, i64 %107
  store i16 %101, ptr %108, align 2, !tbaa !50
  br label %109

109:                                              ; preds = %42
  %110 = load i32, ptr %7, align 4, !tbaa !11
  %111 = add nsw i32 %110, 1
  store i32 %111, ptr %7, align 4, !tbaa !11
  br label %38, !llvm.loop !57

112:                                              ; preds = %38
  %113 = load ptr, ptr %9, align 8, !tbaa !48
  %114 = load i32, ptr %6, align 4, !tbaa !11
  %115 = sub nsw i32 %114, 1
  %116 = sext i32 %115 to i64
  %117 = getelementptr inbounds i16, ptr %113, i64 %116
  %118 = load i16, ptr %117, align 2, !tbaa !50
  %119 = sext i16 %118 to i32
  %120 = load ptr, ptr %10, align 8, !tbaa !48
  %121 = load i32, ptr %8, align 4, !tbaa !11
  %122 = sub nsw i32 %121, 1
  %123 = sext i32 %122 to i64
  %124 = getelementptr inbounds i16, ptr %120, i64 %123
  %125 = load i16, ptr %124, align 2, !tbaa !50
  %126 = sext i16 %125 to i32
  %127 = load ptr, ptr %10, align 8, !tbaa !48
  %128 = load i32, ptr %8, align 4, !tbaa !11
  %129 = sub nsw i32 %128, 1
  %130 = sext i32 %129 to i64
  %131 = getelementptr inbounds i16, ptr %127, i64 %130
  %132 = load i16, ptr %131, align 2, !tbaa !50
  %133 = sext i16 %132 to i32
  %134 = add i32 %126, %133
  %135 = add i32 %134, 1
  %136 = ashr i32 %135, 1
  %137 = add i32 %119, %136
  %138 = trunc i32 %137 to i16
  %139 = load ptr, ptr %10, align 8, !tbaa !48
  %140 = load i32, ptr %6, align 4, !tbaa !11
  %141 = sub nsw i32 %140, 1
  %142 = sext i32 %141 to i64
  %143 = getelementptr inbounds i16, ptr %139, i64 %142
  store i16 %138, ptr %143, align 2, !tbaa !50
  %144 = load ptr, ptr %9, align 8, !tbaa !48
  %145 = load ptr, ptr %10, align 8, !tbaa !48
  %146 = load ptr, ptr %10, align 8, !tbaa !48
  %147 = load i32, ptr %8, align 4, !tbaa !11
  %148 = sext i32 %147 to i64
  %149 = getelementptr inbounds i16, ptr %146, i64 %148
  %150 = load i32, ptr %8, align 4, !tbaa !11
  call void @interleave_8bit(ptr noundef %144, ptr noundef %145, ptr noundef %149, i32 noundef %150, i32 noundef 1, i32 noundef 1)
  call void @llvm.lifetime.end.p0(i64 8, ptr %10) #5
  call void @llvm.lifetime.end.p0(i64 8, ptr %9) #5
  call void @llvm.lifetime.end.p0(i64 4, ptr %8) #5
  call void @llvm.lifetime.end.p0(i64 4, ptr %7) #5
  ret void
}