; Function Attrs: nofree norecurse nosync nounwind memory(argmem: readwrite) uwtable
define internal void @horizontal_compose_dirac53i_8bit(ptr noundef captures(none) %0, ptr noundef captures(none) initializes((0, 2)) %1, i32 noundef %2) #3 {
  %4 = ashr i32 %2, 1
  %5 = load i16, ptr %0, align 2, !tbaa !39
  %6 = sext i32 %4 to i64
  %7 = getelementptr inbounds i16, ptr %0, i64 %6
  %8 = load i16, ptr %7, align 2, !tbaa !39
  %9 = sext i16 %8 to i32
  %10 = shl nsw i32 %9, 1
  %11 = add nsw i32 %10, 2
  %12 = lshr i32 %11, 2
  %13 = trunc i32 %12 to i16
  %14 = sub i16 %5, %13
  store i16 %14, ptr %1, align 2, !tbaa !39
  %15 = icmp sgt i32 %4, 1
  br i1 %15, label %.lr.ph.preheader, label %._crit_edge

.lr.ph.preheader:                                 ; preds = %3
  %invariant.op = add nsw i32 %4, -1
  %16 = zext nneg i32 %invariant.op to i64
  %wide.trip.count = zext nneg i32 %4 to i64
  %invariant.gep = getelementptr i16, ptr %0, i64 %6
  br label %.lr.ph

.lr.ph:                                           ; preds = %.lr.ph.preheader, %.lr.ph
  %indvars.iv = phi i64 [ 1, %.lr.ph.preheader ], [ %indvars.iv.next, %.lr.ph ]
  %17 = getelementptr inbounds nuw i16, ptr %0, i64 %indvars.iv
  %18 = load i16, ptr %17, align 2, !tbaa !39
  %19 = add nuw nsw i64 %indvars.iv, %16
  %20 = getelementptr inbounds nuw i16, ptr %0, i64 %19
  %21 = load i16, ptr %20, align 2, !tbaa !39
  %22 = sext i16 %21 to i32
  %gep = getelementptr i16, ptr %invariant.gep, i64 %indvars.iv
  %23 = load i16, ptr %gep, align 2, !tbaa !39
  %24 = sext i16 %23 to i32
  %25 = add nsw i32 %22, 2
  %26 = add nsw i32 %25, %24
  %27 = lshr i32 %26, 2
  %28 = trunc i32 %27 to i16
  %29 = sub i16 %18, %28
  %30 = getelementptr inbounds nuw i16, ptr %1, i64 %indvars.iv
  store i16 %29, ptr %30, align 2, !tbaa !39
  %31 = load i16, ptr %20, align 2, !tbaa !39
  %32 = getelementptr i8, ptr %30, i64 -2
  %33 = load i16, ptr %32, align 2, !tbaa !39
  %34 = sext i16 %33 to i32
  %35 = sext i16 %29 to i32
  %36 = add nsw i32 %34, 1
  %37 = add nsw i32 %36, %35
  %38 = lshr i32 %37, 1
  %39 = trunc i32 %38 to i16
  %40 = add i16 %31, %39
  %41 = getelementptr inbounds nuw i16, ptr %1, i64 %19
  store i16 %40, ptr %41, align 2, !tbaa !39
  %indvars.iv.next = add nuw nsw i64 %indvars.iv, 1
  %exitcond.not = icmp eq i64 %indvars.iv.next, %wide.trip.count
  br i1 %exitcond.not, label %._crit_edge, label %.lr.ph, !llvm.loop !46

._crit_edge:                                      ; preds = %.lr.ph, %3
  %42 = add nsw i32 %2, -1
  %43 = sext i32 %42 to i64
  %44 = getelementptr inbounds i16, ptr %0, i64 %43
  %45 = load i16, ptr %44, align 2, !tbaa !39
  %46 = getelementptr i16, ptr %1, i64 %6
  %47 = getelementptr i8, ptr %46, i64 -2
  %48 = load i16, ptr %47, align 2, !tbaa !39
  %49 = add i16 %48, %45
  %50 = getelementptr inbounds i16, ptr %1, i64 %43
  store i16 %49, ptr %50, align 2, !tbaa !39
  %51 = icmp sgt i32 %4, 0
  br i1 %51, label %.lr.ph48.preheader, label %interleave_8bit.exit

.lr.ph48.preheader:                               ; preds = %._crit_edge
  %wide.trip.count54 = zext nneg i32 %4 to i64
  br label %.lr.ph48

.lr.ph48:                                         ; preds = %.lr.ph48.preheader, %.lr.ph48
  %indvars.iv51 = phi i64 [ 0, %.lr.ph48.preheader ], [ %indvars.iv.next52, %.lr.ph48 ]
  %52 = getelementptr inbounds nuw i16, ptr %1, i64 %indvars.iv51
  %53 = load i16, ptr %52, align 2, !tbaa !39
  %54 = sext i16 %53 to i32
  %55 = add nsw i32 %54, 1
  %56 = lshr i32 %55, 1
  %57 = trunc i32 %56 to i16
  %.idx = shl nuw nsw i64 %indvars.iv51, 2
  %58 = getelementptr inbounds nuw i8, ptr %0, i64 %.idx
  store i16 %57, ptr %58, align 2, !tbaa !39
  %59 = getelementptr inbounds nuw i16, ptr %46, i64 %indvars.iv51
  %60 = load i16, ptr %59, align 2, !tbaa !39
  %61 = sext i16 %60 to i32
  %62 = add nsw i32 %61, 1
  %63 = lshr i32 %62, 1
  %64 = trunc i32 %63 to i16
  %65 = getelementptr inbounds nuw i8, ptr %58, i64 2
  store i16 %64, ptr %65, align 2, !tbaa !39
  %indvars.iv.next52 = add nuw nsw i64 %indvars.iv51, 1
  %exitcond55.not = icmp eq i64 %indvars.iv.next52, %wide.trip.count54
  br i1 %exitcond55.not, label %interleave_8bit.exit, label %.lr.ph48, !llvm.loop !47

interleave_8bit.exit:                             ; preds = %.lr.ph48, %._crit_edge
  ret void
}